target datalayout = "e-m:e-p270:32:32-p271:32:32-p272:64:64-i64:64-i128:128-f80:128-n8:16:32:64-S128"
target triple = "x86_64-pc-linux-gnu"

%struct.psa_key_slot_t = type { %struct.psa_key_attributes_s, i32, i8, %union.anon, %struct.key_data }
%struct.psa_key_attributes_s = type { i16, i16, i32, %struct.psa_key_policy_s, i32 }
%struct.psa_key_policy_s = type { i32, i32, i32 }
%union.anon = type { %struct.anon.0 }
%struct.anon.0 = type { i64 }
%struct.key_data = type { ptr, i64 }
%struct.psa_hash_operation_s = type { i32, %union.psa_driver_hash_context_t }
%union.psa_driver_hash_context_t = type { %struct.mbedtls_psa_hash_operation_t }
%struct.mbedtls_psa_hash_operation_t = type { i32, %union.anon.1 }
%union.anon.1 = type { %struct.mbedtls_sha512_context }
%struct.mbedtls_sha512_context = type { [2 x i64], [8 x i64], [128 x i8], i32 }
%struct.psa_mac_operation_s = type { i32, i8, i8, %union.psa_driver_mac_context_t }
%union.psa_driver_mac_context_t = type { %struct.mbedtls_psa_mac_operation_t }
%struct.mbedtls_psa_mac_operation_t = type { i32, %union.anon.2 }
%union.anon.2 = type { %struct.mbedtls_psa_hmac_operation_t }
%struct.mbedtls_psa_hmac_operation_t = type { i32, %struct.psa_hash_operation_s, [144 x i8] }
%struct.psa_key_derivation_s = type { i32, i8, i64, %union.psa_driver_key_derivation_context_t }
%union.psa_driver_key_derivation_context_t = type { %struct.psa_hkdf_key_derivation_t }
%struct.psa_hkdf_key_derivation_t = type { ptr, i64, i8, i8, i8, [64 x i8], [64 x i8], %struct.psa_mac_operation_s }

; Function Attrs: inlinehint nounwind uwtable
define internal i32 @psa_key_lifetime_is_external(i32 noundef %0) #6 {
  %2 = alloca i32, align 4
  store i32 %0, ptr %2, align 4, !tbaa !3
  %3 = load i32, ptr %2, align 4, !tbaa !3
  %4 = lshr i32 %3, 8
  %5 = icmp ne i32 %4, 0
  %6 = zext i1 %5 to i32
  ret i32 %6
}

; Function Attrs: nounwind uwtable
define internal i32 @psa_get_and_lock_transparent_key_slot_with_policy(i32 noundef %0, ptr noundef %1, i32 noundef %2, i32 noundef %3) #0 {
  %5 = alloca i32, align 4
  %6 = alloca i32, align 4
  %7 = alloca ptr, align 8
  %8 = alloca i32, align 4
  %9 = alloca i32, align 4
  %10 = alloca i32, align 4
  %11 = alloca i32, align 4
  store i32 %0, ptr %6, align 4, !tbaa !3
  store ptr %1, ptr %7, align 8, !tbaa !40
  store i32 %2, ptr %8, align 4, !tbaa !3
  store i32 %3, ptr %9, align 4, !tbaa !3
  call void @llvm.lifetime.start.p0(i64 4, ptr %10) #8
  %12 = load i32, ptr %6, align 4, !tbaa !3
  %13 = load ptr, ptr %7, align 8, !tbaa !40
  %14 = load i32, ptr %8, align 4, !tbaa !3
  %15 = load i32, ptr %9, align 4, !tbaa !3
  %16 = call i32 @psa_get_and_lock_key_slot_with_policy(i32 noundef %12, ptr noundef %13, i32 noundef %14, i32 noundef %15)
  store i32 %16, ptr %10, align 4, !tbaa !3
  %17 = load i32, ptr %10, align 4, !tbaa !3
  %18 = icmp ne i32 %17, 0
  br i1 %18, label %19, label %21

19:                                               ; preds = %4
  %20 = load i32, ptr %10, align 4, !tbaa !3
  store i32 %20, ptr %5, align 4
  store i32 1, ptr %11, align 4
  br label %35

21:                                               ; preds = %4
  %22 = load ptr, ptr %7, align 8, !tbaa !40
  %23 = load ptr, ptr %22, align 8, !tbaa !21
  %24 = getelementptr inbounds nuw %struct.psa_key_slot_t, ptr %23, i32 0, i32 0
  %25 = getelementptr inbounds nuw %struct.psa_key_attributes_s, ptr %24, i32 0, i32 2
  %26 = load i32, ptr %25, align 4, !tbaa !37
  %27 = call i32 @psa_key_lifetime_is_external(i32 noundef %26)
  %28 = icmp ne i32 %27, 0
  br i1 %28, label %29, label %34

29:                                               ; preds = %21
  %30 = load ptr, ptr %7, align 8, !tbaa !40
  %31 = load ptr, ptr %30, align 8, !tbaa !21
  %32 = call i32 @psa_unregister_read_under_mutex(ptr noundef %31)
  %33 = load ptr, ptr %7, align 8, !tbaa !40
  store ptr null, ptr %33, align 8, !tbaa !21
  store i32 -134, ptr %5, align 4
  store i32 1, ptr %11, align 4
  br label %35

34:                                               ; preds = %21
  store i32 0, ptr %5, align 4
  store i32 1, ptr %11, align 4
  br label %35

35:                                               ; preds = %34, %29, %19
  call void @llvm.lifetime.end.p0(i64 4, ptr %10) #8
  %36 = load i32, ptr %5, align 4
  ret i32 %36
}

; Function Attrs: nounwind uwtable
define hidden i32 @psa_key_derivation_input_key(ptr noundef %0, i16 noundef zeroext %1, i32 noundef %2) #0 {
  %4 = alloca i32, align 4
  %5 = alloca ptr, align 8
  %6 = alloca i16, align 2
  %7 = alloca i32, align 4
  %8 = alloca i32, align 4
  %9 = alloca i32, align 4
  %10 = alloca ptr, align 8
  %11 = alloca i32, align 4
  store ptr %0, ptr %5, align 8, !tbaa !105
  store i16 %1, ptr %6, align 2, !tbaa !18
  store i32 %2, ptr %7, align 4, !tbaa !3
  call void @llvm.lifetime.start.p0(i64 4, ptr %8) #8
  store i32 -151, ptr %8, align 4, !tbaa !3
  call void @llvm.lifetime.start.p0(i64 4, ptr %9) #8
  store i32 -151, ptr %9, align 4, !tbaa !3
  call void @llvm.lifetime.start.p0(i64 8, ptr %10) #8
  %12 = load i32, ptr %7, align 4, !tbaa !3
  %13 = load ptr, ptr %5, align 8, !tbaa !105
  %14 = getelementptr inbounds nuw %struct.psa_key_derivation_s, ptr %13, i32 0, i32 0
  %15 = load i32, ptr %14, align 8, !tbaa !107
  %16 = call i32 @psa_get_and_lock_transparent_key_slot_with_policy(i32 noundef %12, ptr noundef %10, i32 noundef 16384, i32 noundef %15)
  store i32 %16, ptr %8, align 4, !tbaa !3
  %17 = load i32, ptr %8, align 4, !tbaa !3
  %18 = icmp ne i32 %17, 0
  br i1 %18, label %19, label %23

19:                                               ; preds = %3
  %20 = load ptr, ptr %5, align 8, !tbaa !105
  %21 = call i32 @psa_key_derivation_abort(ptr noundef %20)
  %22 = load i32, ptr %8, align 4, !tbaa !3
  store i32 %22, ptr %4, align 4
  store i32 1, ptr %11, align 4
  br label %63

23:                                               ; preds = %3
  %24 = load i16, ptr %6, align 2, !tbaa !18
  %25 = zext i16 %24 to i32
  %26 = icmp eq i32 %25, 257
  br i1 %26, label %31, label %27

27:                                               ; preds = %23
  %28 = load i16, ptr %6, align 2, !tbaa !18
  %29 = zext i16 %28 to i32
  %30 = icmp eq i32 %29, 258
  br i1 %30, label %31, label %37

31:                                               ; preds = %27, %23
  %32 = load ptr, ptr %5, align 8, !tbaa !105
  %33 = getelementptr inbounds nuw %struct.psa_key_derivation_s, ptr %32, i32 0, i32 1
  %34 = load i8, ptr %33, align 4
  %35 = and i8 %34, -2
  %36 = or i8 %35, 1
  store i8 %36, ptr %33, align 4
  br label %37

37:                                               ; preds = %31, %27
  %38 = load ptr, ptr %5, align 8, !tbaa !105
  %39 = load i16, ptr %6, align 2, !tbaa !18
  %40 = load ptr, ptr %10, align 8, !tbaa !21
  %41 = getelementptr inbounds nuw %struct.psa_key_slot_t, ptr %40, i32 0, i32 0
  %42 = getelementptr inbounds nuw %struct.psa_key_attributes_s, ptr %41, i32 0, i32 0
  %43 = load i16, ptr %42, align 8, !tbaa !42
  %44 = load ptr, ptr %10, align 8, !tbaa !21
  %45 = getelementptr inbounds nuw %struct.psa_key_slot_t, ptr %44, i32 0, i32 4
  %46 = getelementptr inbounds nuw %struct.key_data, ptr %45, i32 0, i32 0
  %47 = load ptr, ptr %46, align 8, !tbaa !22
  %48 = load ptr, ptr %10, align 8, !tbaa !21
  %49 = getelementptr inbounds nuw %struct.psa_key_slot_t, ptr %48, i32 0, i32 4
  %50 = getelementptr inbounds nuw %struct.key_data, ptr %49, i32 0, i32 1
  %51 = load i64, ptr %50, align 8, !tbaa !28
  %52 = call i32 @psa_key_derivation_input_internal(ptr noundef %38, i16 noundef zeroext %39, i16 noundef zeroext %43, ptr noundef %47, i64 noundef %51)
  store i32 %52, ptr %8, align 4, !tbaa !3
  %53 = load ptr, ptr %10, align 8, !tbaa !21
  %54 = call i32 @psa_unregister_read_under_mutex(ptr noundef %53)
  store i32 %54, ptr %9, align 4, !tbaa !3
  %55 = load i32, ptr %8, align 4, !tbaa !3
  %56 = icmp eq i32 %55, 0
  br i1 %56, label %57, label %59

57:                                               ; preds = %37
  %58 = load i32, ptr %9, align 4, !tbaa !3
  br label %61

59:                                               ; preds = %37
  %60 = load i32, ptr %8, align 4, !tbaa !3
  br label %61

61:                                               ; preds = %59, %57
  %62 = phi i32 [ %58, %57 ], [ %60, %59 ]
  store i32 %62, ptr %4, align 4
  store i32 1, ptr %11, align 4
  br label %63

63:                                               ; preds = %61, %19
  call void @llvm.lifetime.end.p0(i64 8, ptr %10) #8
  call void @llvm.lifetime.end.p0(i64 4, ptr %9) #8
  call void @llvm.lifetime.end.p0(i64 4, ptr %8) #8
  %64 = load i32, ptr %4, align 4
  ret i32 %64
}