; Function Attrs: nounwind uwtable
define hidden i32 @psa_key_derivation_input_key(ptr noundef %0, i16 noundef zeroext %1, i32 noundef %2) local_unnamed_addr #7 {
  %4 = alloca ptr, align 8
  call void @llvm.lifetime.start.p0(i64 8, ptr nonnull %4) #22
  %5 = load i32, ptr %0, align 8, !tbaa !74
  %6 = call fastcc i32 @psa_get_and_lock_key_slot_with_policy(i32 noundef %2, ptr noundef nonnull %4, i32 noundef 16384, i32 noundef %5)
  %.not.i = icmp eq i32 %6, 0
  br i1 %.not.i, label %7, label %14

7:                                                ; preds = %3
  %8 = load ptr, ptr %4, align 8, !tbaa !29
  %9 = getelementptr inbounds nuw i8, ptr %8, i64 4
  %10 = load i32, ptr %9, align 4, !tbaa !30
  %11 = icmp ult i32 %10, 256
  br i1 %11, label %psa_get_and_lock_transparent_key_slot_with_policy.exit, label %12

12:                                               ; preds = %7
  %13 = call i32 @psa_unregister_read_under_mutex(ptr noundef nonnull %8) #22
  store ptr null, ptr %4, align 8, !tbaa !29
  br label %14

14:                                               ; preds = %12, %3
  %.0.i.ph = phi i32 [ %6, %3 ], [ -134, %12 ]
  %15 = call i32 @psa_key_derivation_abort(ptr noundef nonnull %0)
  br label %32

psa_get_and_lock_transparent_key_slot_with_policy.exit: ; preds = %7
  %16 = add i16 %1, -257
  %or.cond = icmp ult i16 %16, 2
  br i1 %or.cond, label %17, label %21

17:                                               ; preds = %psa_get_and_lock_transparent_key_slot_with_policy.exit
  %18 = getelementptr inbounds nuw i8, ptr %0, i64 4
  %19 = load i8, ptr %18, align 4
  %20 = or i8 %19, 1
  store i8 %20, ptr %18, align 4
  br label %21

21:                                               ; preds = %psa_get_and_lock_transparent_key_slot_with_policy.exit, %17
  %22 = load i16, ptr %8, align 8, !tbaa !35
  %23 = getelementptr inbounds nuw i8, ptr %8, i64 40
  %24 = load ptr, ptr %23, align 8, !tbaa !16
  %25 = getelementptr inbounds nuw i8, ptr %8, i64 48
  %26 = load i64, ptr %25, align 8, !tbaa !23
  %27 = call fastcc i32 @psa_key_derivation_input_internal(ptr noundef nonnull %0, i16 noundef zeroext %1, i16 noundef zeroext %22, ptr noundef %24, i64 noundef %26)
  %28 = load ptr, ptr %4, align 8, !tbaa !29
  %29 = call i32 @psa_unregister_read_under_mutex(ptr noundef %28) #22
  %30 = icmp eq i32 %27, 0
  %31 = select i1 %30, i32 %29, i32 %27
  br label %32

32:                                               ; preds = %21, %14
  %.0 = phi i32 [ %.0.i.ph, %14 ], [ %31, %21 ]
  call void @llvm.lifetime.end.p0(i64 8, ptr nonnull %4) #22
  ret i32 %.0
}